target datalayout = "e-m:e-p270:32:32-p271:32:32-p272:64:64-i64:64-i128:128-f80:128-n8:16:32:64-S128"
target triple = "x86_64-pc-linux-gnu"

%struct.UBiDi = type { ptr, ptr, i32, i32, i32, i32, i32, i32, i32, i32, i32, ptr, ptr, ptr, ptr, ptr, ptr, i8, i8, ptr, ptr, i8, i32, i32, i8, i8, i8, ptr, i32, ptr, i32, ptr, i32, i32, i32, i32, i32, ptr, [10 x %struct.Para], i32, ptr, [1 x %struct.Run], i32, ptr, [5 x %struct.Isolate], %struct.InsertPoints, i32, ptr, ptr }
%struct.Para = type { i32, i32 }
%struct.Run = type { i32, i32, i32 }
%struct.Isolate = type { i32, i32, i32, i16 }
%struct.InsertPoints = type { i32, i32, i32, i32, ptr }

; Function Attrs: inlinehint mustprogress nounwind uwtable
define internal noundef signext i8 @_ZL9U_FAILURE10UErrorCode(i32 noundef %0) #2 {
  %2 = alloca i32, align 4
  store i32 %0, ptr %2, align 4, !tbaa !11
  %3 = load i32, ptr %2, align 4, !tbaa !11
  %4 = icmp sgt i32 %3, 0
  %5 = zext i1 %4 to i8
  ret i8 %5
}

; Function Attrs: mustprogress uwtable
define ptr @ubidi_getLevels_77(ptr noundef %0, ptr noundef %1) #0 {
  %3 = alloca ptr, align 8
  %4 = alloca ptr, align 8
  %5 = alloca ptr, align 8
  %6 = alloca i32, align 4
  %7 = alloca i32, align 4
  %8 = alloca i32, align 4
  %9 = alloca ptr, align 8
  store ptr %0, ptr %4, align 8, !tbaa !3
  store ptr %1, ptr %5, align 8, !tbaa !10
  call void @llvm.lifetime.start.p0(i64 4, ptr %6) #8
  call void @llvm.lifetime.start.p0(i64 4, ptr %7) #8
  br label %10

10:                                               ; preds = %2
  %11 = load ptr, ptr %5, align 8, !tbaa !10
  %12 = icmp eq ptr %11, null
  br i1 %12, label %18, label %13

13:                                               ; preds = %10
  %14 = load ptr, ptr %5, align 8, !tbaa !10
  %15 = load i32, ptr %14, align 4, !tbaa !11
  %16 = call noundef signext i8 @_ZL9U_FAILURE10UErrorCode(i32 noundef %15)
  %17 = icmp ne i8 %16, 0
  br i1 %17, label %18, label %19

18:                                               ; preds = %13, %10
  store ptr null, ptr %3, align 8
  store i32 1, ptr %8, align 4
  br label %122

19:                                               ; preds = %13
  br label %20

20:                                               ; preds = %19
  br label %21

21:                                               ; preds = %20
  br label %22

22:                                               ; preds = %21
  %23 = load ptr, ptr %4, align 8, !tbaa !3
  %24 = icmp ne ptr %23, null
  br i1 %24, label %25, label %46

25:                                               ; preds = %22
  %26 = load ptr, ptr %4, align 8, !tbaa !3
  %27 = getelementptr inbounds nuw %struct.UBiDi, ptr %26, i32 0, i32 0
  %28 = load ptr, ptr %27, align 8, !tbaa !13
  %29 = load ptr, ptr %4, align 8, !tbaa !3
  %30 = icmp eq ptr %28, %29
  br i1 %30, label %48, label %31

31:                                               ; preds = %25
  %32 = load ptr, ptr %4, align 8, !tbaa !3
  %33 = getelementptr inbounds nuw %struct.UBiDi, ptr %32, i32 0, i32 0
  %34 = load ptr, ptr %33, align 8, !tbaa !13
  %35 = icmp ne ptr %34, null
  br i1 %35, label %36, label %46

36:                                               ; preds = %31
  %37 = load ptr, ptr %4, align 8, !tbaa !3
  %38 = getelementptr inbounds nuw %struct.UBiDi, ptr %37, i32 0, i32 0
  %39 = load ptr, ptr %38, align 8, !tbaa !13
  %40 = getelementptr inbounds nuw %struct.UBiDi, ptr %39, i32 0, i32 0
  %41 = load ptr, ptr %40, align 8, !tbaa !13
  %42 = load ptr, ptr %4, align 8, !tbaa !3
  %43 = getelementptr inbounds nuw %struct.UBiDi, ptr %42, i32 0, i32 0
  %44 = load ptr, ptr %43, align 8, !tbaa !13
  %45 = icmp eq ptr %41, %44
  br i1 %45, label %48, label %46

46:                                               ; preds = %36, %31, %22
  %47 = load ptr, ptr %5, align 8, !tbaa !10
  store i32 27, ptr %47, align 4, !tbaa !11
  store ptr null, ptr %3, align 8
  store i32 1, ptr %8, align 4
  br label %122

48:                                               ; preds = %36, %25
  br label %49

49:                                               ; preds = %48
  br label %50

50:                                               ; preds = %49
  %51 = load ptr, ptr %4, align 8, !tbaa !3
  %52 = getelementptr inbounds nuw %struct.UBiDi, ptr %51, i32 0, i32 3
  %53 = load i32, ptr %52, align 4, !tbaa !26
  store i32 %53, ptr %7, align 4, !tbaa !8
  %54 = icmp sle i32 %53, 0
  br i1 %54, label %55, label %57

55:                                               ; preds = %50
  %56 = load ptr, ptr %5, align 8, !tbaa !10
  store i32 1, ptr %56, align 4, !tbaa !11
  store ptr null, ptr %3, align 8
  store i32 1, ptr %8, align 4
  br label %122

57:                                               ; preds = %50
  %58 = load ptr, ptr %4, align 8, !tbaa !3
  %59 = getelementptr inbounds nuw %struct.UBiDi, ptr %58, i32 0, i32 35
  %60 = load i32, ptr %59, align 4, !tbaa !49
  store i32 %60, ptr %6, align 4, !tbaa !8
  %61 = load i32, ptr %7, align 4, !tbaa !8
  %62 = icmp eq i32 %60, %61
  br i1 %62, label %63, label %67

63:                                               ; preds = %57
  %64 = load ptr, ptr %4, align 8, !tbaa !3
  %65 = getelementptr inbounds nuw %struct.UBiDi, ptr %64, i32 0, i32 20
  %66 = load ptr, ptr %65, align 8, !tbaa !46
  store ptr %66, ptr %3, align 8
  store i32 1, ptr %8, align 4
  br label %122

67:                                               ; preds = %57
  %68 = load ptr, ptr %4, align 8, !tbaa !3
  %69 = getelementptr inbounds nuw %struct.UBiDi, ptr %68, i32 0, i32 12
  %70 = load ptr, ptr %4, align 8, !tbaa !3
  %71 = getelementptr inbounds nuw %struct.UBiDi, ptr %70, i32 0, i32 6
  %72 = load ptr, ptr %4, align 8, !tbaa !3
  %73 = getelementptr inbounds nuw %struct.UBiDi, ptr %72, i32 0, i32 17
  %74 = load i8, ptr %73, align 8, !tbaa !55
  %75 = load i32, ptr %7, align 4, !tbaa !8
  %76 = call signext i8 @ubidi_getMemory_77(ptr noundef %69, ptr noundef %71, i8 noundef signext %74, i32 noundef %75)
  %77 = icmp ne i8 %76, 0
  br i1 %77, label %78, label %120

78:                                               ; preds = %67
  call void @llvm.lifetime.start.p0(i64 8, ptr %9) #8
  %79 = load ptr, ptr %4, align 8, !tbaa !3
  %80 = getelementptr inbounds nuw %struct.UBiDi, ptr %79, i32 0, i32 12
  %81 = load ptr, ptr %80, align 8, !tbaa !56
  store ptr %81, ptr %9, align 8, !tbaa !50
  %82 = load i32, ptr %6, align 4, !tbaa !8
  %83 = icmp sgt i32 %82, 0
  br i1 %83, label %84, label %100

84:                                               ; preds = %78
  %85 = load ptr, ptr %9, align 8, !tbaa !50
  %86 = load ptr, ptr %4, align 8, !tbaa !3
  %87 = getelementptr inbounds nuw %struct.UBiDi, ptr %86, i32 0, i32 20
  %88 = load ptr, ptr %87, align 8, !tbaa !46
  %89 = icmp ne ptr %85, %88
  br i1 %89, label %90, label %100

90:                                               ; preds = %84
  br label %91

91:                                               ; preds = %90
  %92 = load ptr, ptr %9, align 8, !tbaa !50
  %93 = load ptr, ptr %4, align 8, !tbaa !3
  %94 = getelementptr inbounds nuw %struct.UBiDi, ptr %93, i32 0, i32 20
  %95 = load ptr, ptr %94, align 8, !tbaa !46
  %96 = load i32, ptr %6, align 4, !tbaa !8
  %97 = sext i32 %96 to i64
  call void @llvm.memcpy.p0.p0.i64(ptr align 1 %92, ptr align 1 %95, i64 %97, i1 false)
  br label %98

98:                                               ; preds = %91
  br label %99

99:                                               ; preds = %98
  br label %100

100:                                              ; preds = %99, %84, %78
  %101 = load ptr, ptr %9, align 8, !tbaa !50
  %102 = load i32, ptr %6, align 4, !tbaa !8
  %103 = sext i32 %102 to i64
  %104 = getelementptr inbounds i8, ptr %101, i64 %103
  %105 = load ptr, ptr %4, align 8, !tbaa !3
  %106 = getelementptr inbounds nuw %struct.UBiDi, ptr %105, i32 0, i32 25
  %107 = load i8, ptr %106, align 1, !tbaa !34
  %108 = zext i8 %107 to i32
  %109 = trunc i32 %108 to i8
  %110 = load i32, ptr %7, align 4, !tbaa !8
  %111 = load i32, ptr %6, align 4, !tbaa !8
  %112 = sub nsw i32 %110, %111
  %113 = sext i32 %112 to i64
  call void @llvm.memset.p0.i64(ptr align 1 %104, i8 %109, i64 %113, i1 false)
  %114 = load i32, ptr %7, align 4, !tbaa !8
  %115 = load ptr, ptr %4, align 8, !tbaa !3
  %116 = getelementptr inbounds nuw %struct.UBiDi, ptr %115, i32 0, i32 35
  store i32 %114, ptr %116, align 4, !tbaa !49
  %117 = load ptr, ptr %9, align 8, !tbaa !50
  %118 = load ptr, ptr %4, align 8, !tbaa !3
  %119 = getelementptr inbounds nuw %struct.UBiDi, ptr %118, i32 0, i32 20
  store ptr %117, ptr %119, align 8, !tbaa !46
  store ptr %117, ptr %3, align 8
  store i32 1, ptr %8, align 4
  call void @llvm.lifetime.end.p0(i64 8, ptr %9) #8
  br label %122

120:                                              ; preds = %67
  %121 = load ptr, ptr %5, align 8, !tbaa !10
  store i32 7, ptr %121, align 4, !tbaa !11
  store ptr null, ptr %3, align 8
  store i32 1, ptr %8, align 4
  br label %122

122:                                              ; preds = %120, %100, %63, %55, %46, %18
  call void @llvm.lifetime.end.p0(i64 4, ptr %7) #8
  call void @llvm.lifetime.end.p0(i64 4, ptr %6) #8
  %123 = load ptr, ptr %3, align 8
  ret ptr %123
}