; Function Attrs: mustprogress uwtable
define ptr @ubidi_getLevels_77(ptr noundef %0, ptr noundef %1) local_unnamed_addr #0 {
  %3 = icmp eq ptr %1, null
  br i1 %3, label %51, label %4

4:                                                ; preds = %2
  %5 = load i32, ptr %1, align 4, !tbaa !3
  %6 = icmp slt i32 %5, 1
  br i1 %6, label %7, label %51

7:                                                ; preds = %4
  %.not42 = icmp eq ptr %0, null
  br i1 %.not42, label %15, label %8

8:                                                ; preds = %7
  %9 = load ptr, ptr %0, align 8, !tbaa !7
  %10 = icmp eq ptr %9, %0
  br i1 %10, label %16, label %11

11:                                               ; preds = %8
  %.not43 = icmp eq ptr %9, null
  br i1 %.not43, label %15, label %12

12:                                               ; preds = %11
  %13 = load ptr, ptr %9, align 8, !tbaa !7
  %14 = icmp eq ptr %13, %9
  br i1 %14, label %16, label %15

15:                                               ; preds = %12, %11, %7
  store i32 27, ptr %1, align 4, !tbaa !3
  br label %51

16:                                               ; preds = %12, %8
  %17 = getelementptr inbounds nuw i8, ptr %0, i64 20
  %18 = load i32, ptr %17, align 4, !tbaa !23
  %19 = icmp slt i32 %18, 1
  br i1 %19, label %20, label %21

20:                                               ; preds = %16
  store i32 1, ptr %1, align 4, !tbaa !3
  br label %51

21:                                               ; preds = %16
  %22 = getelementptr inbounds nuw i8, ptr %0, i64 196
  %23 = load i32, ptr %22, align 4, !tbaa !46
  %24 = icmp eq i32 %23, %18
  br i1 %24, label %25, label %28

25:                                               ; preds = %21
  %26 = getelementptr inbounds nuw i8, ptr %0, i64 120
  %27 = load ptr, ptr %26, align 8, !tbaa !43
  br label %51

28:                                               ; preds = %21
  %29 = getelementptr inbounds nuw i8, ptr %0, i64 64
  %30 = getelementptr inbounds nuw i8, ptr %0, i64 32
  %31 = getelementptr inbounds nuw i8, ptr %0, i64 104
  %32 = load i8, ptr %31, align 8, !tbaa !51
  %33 = tail call signext i8 @ubidi_getMemory_77(ptr noundef nonnull %29, ptr noundef nonnull %30, i8 noundef signext %32, i32 noundef %18)
  %.not44 = icmp eq i8 %33, 0
  br i1 %.not44, label %50, label %34

34:                                               ; preds = %28
  %35 = load ptr, ptr %29, align 8, !tbaa !52
  %36 = icmp sgt i32 %23, 0
  br i1 %36, label %37, label %42

37:                                               ; preds = %34
  %38 = getelementptr inbounds nuw i8, ptr %0, i64 120
  %39 = load ptr, ptr %38, align 8, !tbaa !43
  %.not45 = icmp eq ptr %35, %39
  br i1 %.not45, label %42, label %40

40:                                               ; preds = %37
  %41 = zext nneg i32 %23 to i64
  tail call void @llvm.memcpy.p0.p0.i64(ptr align 1 %35, ptr align 1 %39, i64 %41, i1 false)
  br label %42

42:                                               ; preds = %40, %37, %34
  %43 = sext i32 %23 to i64
  %44 = getelementptr inbounds i8, ptr %35, i64 %43
  %45 = getelementptr inbounds nuw i8, ptr %0, i64 141
  %46 = load i8, ptr %45, align 1, !tbaa !31
  %47 = sub nsw i32 %18, %23
  %48 = sext i32 %47 to i64
  tail call void @llvm.memset.p0.i64(ptr align 1 %44, i8 %46, i64 %48, i1 false)
  store i32 %18, ptr %22, align 4, !tbaa !46
  %49 = getelementptr inbounds nuw i8, ptr %0, i64 120
  store ptr %35, ptr %49, align 8, !tbaa !43
  br label %51

50:                                               ; preds = %28
  store i32 7, ptr %1, align 4, !tbaa !3
  br label %51

51:                                               ; preds = %2, %4, %50, %42, %25, %20, %15
  %.0 = phi ptr [ null, %20 ], [ %27, %25 ], [ %35, %42 ], [ null, %50 ], [ null, %15 ], [ null, %4 ], [ null, %2 ]
  ret ptr %.0
}